Microchip MPLAB XC8 Compiler V1.45 ()

Linker command line:

-W-3 --edf=C:\Program Files (x86)\Microchip\xc8\v1.45\dat\en_msgs.txt -cs \
  -h+dist/default/production\lcd1602-4bit-multi-port.X.production.sym \
  --cmf=dist/default/production\lcd1602-4bit-multi-port.X.production.cmf -z \
  -Q16F690 -oC:\Users\ZAF\AppData\Local\Temp\s9pg.2 \
  -Mdist/default/production/lcd1602-4bit-multi-port.X.production.map -E1 \
  -ver=XC8 -ASTACK=0120h-016fh -pstack=STACK -ACODE=00h-07FFhx2 \
  -ASTRCODE=00h-0FFFh -ASTRING=00h-0FFhx16 -ACONST=00h-0FFhx16 \
  -AENTRY=00h-0FFhx16 -ACOMMON=070h-07Fh -ABANK0=020h-06Fh \
  -ABANK1=0A0h-0EFh -ABANK2=0120h-016Fh \
  -ARAM=020h-06Fh,0A0h-0EFh,0120h-016Fh \
  -AABS1=020h-07Fh,0A0h-0EFh,0120h-016Fh -ASFR0=00h-01Fh -ASFR1=080h-09Fh \
  -ASFR2=0100h-011Fh -ASFR3=0180h-01EFh \
  -preset_vec=00h,intentry,init,end_init -ppowerup=CODE -pcinit=CODE \
  -pfunctab=ENTRY -ACONFIG=02007h-02007h -pconfig=CONFIG -DCONFIG=2 \
  -AIDLOC=02000h-02003h -pidloc=IDLOC -DIDLOC=2 -AEEDATA=00h-0FFh/02100h \
  -peeprom_data=EEDATA -DEEDATA=2 -DCODE=2 -DSTRCODE=2 -DSTRING=2 -DCONST=2 \
  -DENTRY=2 -k C:\Users\ZAF\AppData\Local\Temp\s9pg.obj \
  dist/default/production\lcd1602-4bit-multi-port.X.production.obj 

Object code version is 3.11

Machine type is 16F690



                Name                               Link     Load   Length Selector   Space Scale
C:\Users\ZAF\AppData\Local\Temp\s9pg.obj
                end_init                              0        0        2        0       0
                config                             2007     2007        1     400E       0
dist/default/production\lcd1602-4bit-multi-port.X.production.obj
                cinit                               7F7      7F7        9      FEE       0
                text28                              9AF      9AF       12     135E       0
                text27                              9D6      9D6       16     13AC       0
                text26                              9A3      9A3        C     1346       0
                text25                              98C      98C        7     1318       0
                text24                              9C1      9C1       15     1382       0
                text23                              3D0      3D0      1CE      7A0       0
                text22                              A0C      A0C       21     1418       0
                text21                              A4E      A4E       24     149C       0
                text20                              F0C      F0C       F4     1E18       0
                text19                              AF1      AF1       4A     15E2       0
                text18                              BDC      BDC       5D     17B8       0
                text17                              C97      C97       6C     192E       0
                text16                              E3C      E3C       D0     1C78       0
                text15                              993      993        8     1326       0
                text14                              107      107      106      20E       0
                text13                              9EC      9EC       20     13D8       0
                text12                              D03      D03       8E     1A06       0
                text11                              A97      A97       2A     152E       0
                text10                              C39      C39       5E     1872       0
                text9                               B3B      B3B       4E     1676       0
                text8                               A2D      A2D       21     145A       0
                text7                                 4        4        E        8       0
                text6                               59E      59E      259      B3C       0
                text5                               D91      D91       AB     1B22       0
                text4                               A72      A72       25     14E4       0
                text3                               B89      B89       53     1712       0
                text2                                12       12       F5       24       0
                text1                               AC1      AC1       30     1582       0
                maintext                            20D      20D      1C3      41A       0
                cstackBANK0                          20       20       50       20       1
                cstackCOMMON                         70       70        E       70       1
                cstackBANK1                          BD       BD       1C       A0       1
                clrtext                             99B      99B        8     1336       0
                bssBANK1                             A0       A0       1D       A0       1
                strings                             800      800       9E     1000       0

TOTAL           Name                               Link     Load   Length     Space
        CLASS   STACK          

        CLASS   CODE           
                end_init                              0        0        2         0
                cinit                               7F7      7F7        9         0
                text28                              9AF      9AF       12         0
                text27                              9D6      9D6       16         0
                text26                              9A3      9A3        C         0
                text25                              98C      98C        7         0
                text24                              9C1      9C1       15         0
                text23                              3D0      3D0      1CE         0
                text22                              A0C      A0C       21         0
                text21                              A4E      A4E       24         0
                text20                              F0C      F0C       F4         0
                text19                              AF1      AF1       4A         0
                text18                              BDC      BDC       5D         0
                text17                              C97      C97       6C         0
                text16                              E3C      E3C       D0         0
                text15                              993      993        8         0
                text14                              107      107      106         0
                text13                              9EC      9EC       20         0
                text12                              D03      D03       8E         0
                text11                              A97      A97       2A         0
                text10                              C39      C39       5E         0
                text9                               B3B      B3B       4E         0
                text8                               A2D      A2D       21         0
                text7                                 4        4        E         0
                text6                               59E      59E      259         0
                text5                               D91      D91       AB         0
                text4                               A72      A72       25         0
                text3                               B89      B89       53         0
                text2                                12       12       F5         0
                text1                               AC1      AC1       30         0
                maintext                            20D      20D      1C3         0
                clrtext                             99B      99B        8         0

        CLASS   STRCODE        

        CLASS   STRING         
                strings                             800      800       9E         0

        CLASS   CONST          

        CLASS   ENTRY          

        CLASS   COMMON         
                cstackCOMMON                         70       70        E         1

        CLASS   BANK0          
                cstackBANK0                          20       20       50         1

        CLASS   BANK1          
                cstackBANK1                          BD       BD       1C         1
                bssBANK1                             A0       A0       1D         1

        CLASS   BANK2          

        CLASS   RAM            

        CLASS   ABS1           
                abs_s1                               7E       7E        2         1

        CLASS   SFR0           

        CLASS   SFR1           

        CLASS   SFR2           

        CLASS   SFR3           

        CLASS   CONFIG         
                config                             2007     2007        1         0

        CLASS   IDLOC          

        CLASS   EEDATA         

        CLASS   BANK3          



SEGMENTS        Name                           Load    Length   Top    Selector   Space  Class     Delta

                reset_vec                      000000  000002  000002         0       0  CODE        2
                text7                          000004  00000E  000012         8       0  CODE        2
                cstackBANK0                    000020  000050  000070        20       1  BANK0       1
                text2                          000012  0000F5  000107        24       0  CODE        2
                cstackCOMMON                   000070  00000E  00007E        70       1  COMMON      1
                bssBANK1                       0000A0  000039  0000D9        A0       1  BANK1       1
                text14                         000107  000106  00020D       20E       0  CODE        2
                maintext                       00020D  0001C3  0003D0       41A       0  CODE        2
                text23                         0003D0  0001CE  00059E       7A0       0  CODE        2
                text6                          00059E  000259  0007F7       B3C       0  CODE        2
                cinit                          0007F7  000009  000800       FEE       0  CODE        2
                strings                        000800  00009E  00089E      1000       0  STRING      2
                text25                         00098C  000007  000993      1318       0  CODE        2
                text15                         000993  000008  00099B      1326       0  CODE        2
                clrtext                        00099B  000008  0009A3      1336       0  CODE        2
                text26                         0009A3  00000C  0009AF      1346       0  CODE        2
                text28                         0009AF  000012  0009C1      135E       0  CODE        2
                text24                         0009C1  000015  0009D6      1382       0  CODE        2
                text27                         0009D6  000016  0009EC      13AC       0  CODE        2
                text13                         0009EC  000020  000A0C      13D8       0  CODE        2
                text22                         000A0C  000021  000A2D      1418       0  CODE        2
                text8                          000A2D  000021  000A4E      145A       0  CODE        2
                text21                         000A4E  000024  000A72      149C       0  CODE        2
                text4                          000A72  000025  000A97      14E4       0  CODE        2
                text11                         000A97  00002A  000AC1      152E       0  CODE        2
                text1                          000AC1  000030  000AF1      1582       0  CODE        2
                text19                         000AF1  00004A  000B3B      15E2       0  CODE        2
                text9                          000B3B  00004E  000B89      1676       0  CODE        2
                text3                          000B89  000053  000BDC      1712       0  CODE        2
                text18                         000BDC  00005D  000C39      17B8       0  CODE        2
                text10                         000C39  00005E  000C97      1872       0  CODE        2
                text17                         000C97  00006C  000D03      192E       0  CODE        2
                text12                         000D03  00008E  000D91      1A06       0  CODE        2
                text5                          000D91  0000AB  000E3C      1B22       0  CODE        2
                text16                         000E3C  0000D0  000F0C      1C78       0  CODE        2
                text20                         000F0C  0000F4  001000      1E18       0  CODE        2
                config                         002007  000001  002008      400E       0  CONFIG      2


UNUSED ADDRESS RANGES

        Name                Unused          Largest block    Delta
        BANK1            00D9-00EF             17           1
        BANK2            0120-016F             50           1
        CODE             0002-0003              2           2
                         089E-098B             EE
        CONST            0002-0003              2           2
                         089E-098B             62
        EEDATA           2100-21FF            100           2
        ENTRY            0002-0003              2           2
                         089E-098B             62
        IDLOC            2000-2003              4           2
        RAM              00D9-00EF             17           1
                         0120-016F             50
        SFR0             0000-001F             20           1
        SFR1             0080-009F             20           1
        SFR2             0100-011F             20           1
        SFR3             0180-01EF             70           1
        STACK            0120-016F             50           1
        STRCODE          0002-0003              2           2
                         089E-098B             EE
        STRING           0002-0003              2           2
                         089E-098B             62

                                  Symbol Table

?___ftadd                                     cstackCOMMON 0078
?___ftmul                                     cstackCOMMON 0078
?___ftneg                                     cstackCOMMON 0070
?___ftpack                                    cstackCOMMON 0070
?___ftsub                                     cstackBANK0  0027
?___fttol                                     cstackBANK0  002A
?___lldiv                                     cstackCOMMON 0070
?___llmod                                     cstackBANK0  0020
?___lltoft                                    cstackCOMMON 0078
?___wmul                                      cstackCOMMON 0070
?_sprintf                                     cstackBANK0  002A
_ANS10                                        (abs)        08FA
_ANS11                                        (abs)        08FB
_ANS4                                         (abs)        08F4
_ANS5                                         (abs)        08F5
_ANS6                                         (abs)        08F6
_ANS7                                         (abs)        08F7
_ANS8                                         (abs)        08F8
_ANS9                                         (abs)        08F9
_LCD_CMD_CLEAR                                strings      085C
_LCD_CMD_DISPLAY_ON_CURSOR_OFF                strings      0858
_LCD_CMD_FIRST_LINE_FIRST_POS                 strings      084C
_LCD_CMD_INCREMENT_CURSOR                     strings      085A
_LCD_CMD_SECOND_LINE_FIRST_POS                strings      0848
_LCD_CMD_USE_4_BIT_2_LINE_5x7_MTX             strings      0850
_LCD_CMD_USE_8_BIT_2_LINE_5x7_MTX             strings      084E
_PORTB                                        (abs)        0006
_PORTC                                        (abs)        0007
_TRISB                                        (abs)        0086
_TRISC                                        (abs)        0087
__CFG_FOSC$INTRCIO                            (abs)        0000
__CFG_WDTE$OFF                                (abs)        0000
__Habs1                                       abs1         0000
__Hbank0                                      bank0        0000
__Hbank1                                      bank1        0000
__Hbank2                                      bank2        0000
__Hbank3                                      bank3        0000
__HbssBANK1                                   bssBANK1     0000
__Hcinit                                      cinit        0800
__Hclrtext                                    clrtext      0000
__Hcode                                       code         0000
__Hcommon                                     common       0000
__Hconfig                                     config       2008
__HcstackBANK0                                cstackBANK0  0000
__HcstackBANK1                                cstackBANK1  0000
__HcstackCOMMON                               cstackCOMMON 0000
__Heeprom_data                                eeprom_data  0000
__Hend_init                                   end_init     0002
__Hfunctab                                    functab      0000
__Hidloc                                      idloc        0000
__Hinit                                       init         0000
__Hintentry                                   intentry     0000
__Hmaintext                                   maintext     0000
__Hpowerup                                    powerup      0000
__Hram                                        ram          0000
__Hreset_vec                                  reset_vec    0000
__Hsfr0                                       sfr0         0000
__Hsfr1                                       sfr1         0000
__Hsfr2                                       sfr2         0000
__Hsfr3                                       sfr3         0000
__Hspace_0                                    (abs)        2008
__Hspace_1                                    (abs)        00D9
__Hspace_2                                    (abs)        0000
__Hspace_3                                    (abs)        0000
__Hstack                                      stack        0000
__Hstrings                                    strings      0000
__Htext                                       text         0000
__Labs1                                       abs1         0000
__Lbank0                                      bank0        0000
__Lbank1                                      bank1        0000
__Lbank2                                      bank2        0000
__Lbank3                                      bank3        0000
__LbssBANK1                                   bssBANK1     0000
__Lcinit                                      cinit        07F7
__Lclrtext                                    clrtext      0000
__Lcode                                       code         0000
__Lcommon                                     common       0000
__Lconfig                                     config       2007
__LcstackBANK0                                cstackBANK0  0000
__LcstackBANK1                                cstackBANK1  0000
__LcstackCOMMON                               cstackCOMMON 0000
__Leeprom_data                                eeprom_data  0000
__Lend_init                                   end_init     0000
__Lfunctab                                    functab      0000
__Lidloc                                      idloc        0000
__Linit                                       init         0000
__Lintentry                                   intentry     0000
__Lmaintext                                   maintext     0000
__Lpowerup                                    powerup      0000
__Lram                                        ram          0000
__Lreset_vec                                  reset_vec    0000
__Lsfr0                                       sfr0         0000
__Lsfr1                                       sfr1         0000
__Lsfr2                                       sfr2         0000
__Lsfr3                                       sfr3         0000
__Lspace_0                                    (abs)        0000
__Lspace_1                                    (abs)        0000
__Lspace_2                                    (abs)        0000
__Lspace_3                                    (abs)        0000
__Lstack                                      stack        0000
__Lstrings                                    strings      0000
__Ltext                                       text         0000
__S0                                          (abs)        2008
__S1                                          (abs)        00D9
__S2                                          (abs)        0000
__S3                                          (abs)        0000
___ftadd                                      text14       0107
___ftadd@exp1                                 cstackBANK0  0026
___ftadd@exp2                                 cstackBANK0  0025
___ftadd@f1                                   cstackCOMMON 0078
___ftadd@f2                                   cstackCOMMON 007B
___ftadd@sign                                 cstackBANK0  0024
___ftge                                       text18       0BDC
___ftge@ff1                                   cstackCOMMON 0070
___ftge@ff2                                   cstackCOMMON 0073
___ftmul                                      text16       0E3C
___ftmul@cntr                                 cstackBANK0  0028
___ftmul@exp                                  cstackBANK0  0024
___ftmul@f1                                   cstackCOMMON 0078
___ftmul@f2                                   cstackCOMMON 007B
___ftmul@f3_as_product                        cstackBANK0  0025
___ftmul@sign                                 cstackBANK0  0029
___ftneg                                      text15       0993
___ftneg@f1                                   cstackCOMMON 0070
___ftpack                                     text17       0C97
___ftpack@arg                                 cstackCOMMON 0070
___ftpack@exp                                 cstackCOMMON 0073
___ftpack@sign                                cstackCOMMON 0074
___ftsub                                      text13       09EC
___ftsub@f1                                   cstackBANK0  002A
___ftsub@f2                                   cstackBANK0  0027
___fttol                                      text12       0D03
___fttol@exp1                                 cstackBANK0  0037
___fttol@f1                                   cstackBANK0  002A
___fttol@lval                                 cstackBANK0  0033
___fttol@sign1                                cstackBANK0  0032
___int_sp                                     stack        0000
___latbits                                    (abs)        0001
___lldiv                                      text10       0C39
___lldiv@counter                              cstackCOMMON 007D
___lldiv@dividend                             cstackCOMMON 0074
___lldiv@divisor                              cstackCOMMON 0070
___lldiv@quotient                             cstackCOMMON 0079
___llmod                                      text9        0B3B
___llmod@counter                              cstackBANK0  0029
___llmod@dividend                             cstackBANK0  0024
___llmod@divisor                              cstackBANK0  0020
___lltoft                                     text11       0A97
___lltoft@c                                   cstackCOMMON 0078
___lltoft@exp                                 cstackCOMMON 007D
___sp                                         stack        0000
___wmul                                       text8        0A2D
___wmul@multiplicand                          cstackCOMMON 0072
___wmul@multiplier                            cstackCOMMON 0070
___wmul@product                               cstackCOMMON 0074
__end_of_LCD_CMD_CLEAR                        strings      085E
__end_of_LCD_CMD_CUSTOM_CHAR_DEF_CGRAM_ADDR_0 strings      0848
__end_of_LCD_CMD_CUSTOM_CHAR_DEF_CGRAM_ADDR_1 strings      0846
__end_of_LCD_CMD_CUSTOM_CHAR_DEF_CGRAM_ADDR_2 strings      0844
__end_of_LCD_CMD_CUSTOM_CHAR_DEF_CGRAM_ADDR_3 strings      0842
__end_of_LCD_CMD_CUSTOM_CHAR_DEF_CGRAM_ADDR_4 strings      0840
__end_of_LCD_CMD_CUSTOM_CHAR_DEF_CGRAM_ADDR_5 strings      083E
__end_of_LCD_CMD_CUSTOM_CHAR_DEF_CGRAM_ADDR_6 strings      083C
__end_of_LCD_CMD_CUSTOM_CHAR_DEF_CGRAM_ADDR_7 strings      083A
__end_of_LCD_CMD_DISPLAY_CURSOR_ON            strings      0858
__end_of_LCD_CMD_DISPLAY_ON_CURSOR_OFF        strings      085A
__end_of_LCD_CMD_FIRST_LINE_FIRST_POS         strings      084E
__end_of_LCD_CMD_INCREMENT_CURSOR             strings      085C
__end_of_LCD_CMD_JUMP_TO_SECOND_LINE          strings      084C
__end_of_LCD_CMD_LCD_DISPLAY_CURSOR_ON        strings      0856
__end_of_LCD_CMD_SECOND_LINE_FIRST_POS        strings      084A
__end_of_LCD_CMD_USE_4_BIT_1_LINE_5x7_MTX     strings      0854
__end_of_LCD_CMD_USE_4_BIT_2_LINE_5x7_MTX     strings      0852
__end_of_LCD_CMD_USE_8_BIT_2_LINE_5x7_MTX     strings      0850
__end_of___ftadd                              text14       020D
__end_of___ftge                               text18       0C39
__end_of___ftmul                              text16       0F0C
__end_of___ftneg                              text15       099B
__end_of___ftpack                             text17       0D03
__end_of___ftsub                              text13       0A0C
__end_of___fttol                              text12       0D91
__end_of___lldiv                              text10       0C97
__end_of___llmod                              text9        0B89
__end_of___lltoft                             text11       0AC1
__end_of___wmul                               text8        0A4E
__end_of__initialization                      cinit        07FD
__end_of__stringtab                           strings      0810
__end_of_delayMS                              text28       09C1
__end_of_delayUS                              text26       09AF
__end_of_dpowers                              strings      0838
__end_of_ftoa                                 text5        0E3C
__end_of_init                                 text19       0B3B
__end_of_isdigit                              text7        0012
__end_of_lcdClear                             text21       0A72
__end_of_lcdClearRegPin                       text27       09EC
__end_of_lcdCommand                           text22       0A2D
__end_of_lcdData                              text3        0BDC
__end_of_lcdDataFloat                         text2        0107
__end_of_lcdDataInt                           text1        0AF1
__end_of_lcdDelay                             text25       0993
__end_of_lcdInit                              text20       1000
__end_of_lcdProcess                           text23       059E
__end_of_lcdPutChar                           text4        0A97
__end_of_lcdSetRegPin                         text24       09D6
__end_of_main                                 maintext     03D0
__end_of_sprintf                              text6        07F7
__initialization                              cinit        07F7
__pbssBANK1                                   bssBANK1     00A0
__pcstackBANK0                                cstackBANK0  0020
__pcstackBANK1                                cstackBANK1  00BD
__pcstackCOMMON                               cstackCOMMON 0070
__pmaintext                                   maintext     020D
__pstrings                                    strings      0800
__ptext1                                      text1        0AC1
__ptext10                                     text10       0C39
__ptext11                                     text11       0A97
__ptext12                                     text12       0D03
__ptext13                                     text13       09EC
__ptext14                                     text14       0107
__ptext15                                     text15       0993
__ptext16                                     text16       0E3C
__ptext17                                     text17       0C97
__ptext18                                     text18       0BDC
__ptext19                                     text19       0AF1
__ptext2                                      text2        0012
__ptext20                                     text20       0F0C
__ptext21                                     text21       0A4E
__ptext22                                     text22       0A0C
__ptext23                                     text23       03D0
__ptext24                                     text24       09C1
__ptext25                                     text25       098C
__ptext26                                     text26       09A3
__ptext27                                     text27       09D6
__ptext28                                     text28       09AF
__ptext3                                      text3        0B89
__ptext4                                      text4        0A72
__ptext5                                      text5        0D91
__ptext6                                      text6        059E
__ptext7                                      text7        0004
__ptext8                                      text8        0A2D
__ptext9                                      text9        0B3B
__size_of___ftadd                             (abs)        0000
__size_of___ftge                              (abs)        0000
__size_of___ftmul                             (abs)        0000
__size_of___ftneg                             (abs)        0000
__size_of___ftpack                            (abs)        0000
__size_of___ftsub                             (abs)        0000
__size_of___fttol                             (abs)        0000
__size_of___lldiv                             (abs)        0000
__size_of___llmod                             (abs)        0000
__size_of___lltoft                            (abs)        0000
__size_of___wmul                              (abs)        0000
__size_of_delayMS                             (abs)        0000
__size_of_delayUS                             (abs)        0000
__size_of_ftoa                                (abs)        0000
__size_of_init                                (abs)        0000
__size_of_isdigit                             (abs)        0000
__size_of_lcdClear                            (abs)        0000
__size_of_lcdClearRegPin                      (abs)        0000
__size_of_lcdCommand                          (abs)        0000
__size_of_lcdData                             (abs)        0000
__size_of_lcdDataFloat                        (abs)        0000
__size_of_lcdDataInt                          (abs)        0000
__size_of_lcdDelay                            (abs)        0000
__size_of_lcdInit                             (abs)        0000
__size_of_lcdProcess                          (abs)        0000
__size_of_lcdPutChar                          (abs)        0000
__size_of_lcdSetRegPin                        (abs)        0000
__size_of_main                                (abs)        0000
__size_of_sprintf                             (abs)        0000
__stringbase                                  strings      080F
__stringtab                                   strings      0800
_delayMS                                      text28       09AF
_delayUS                                      text26       09A3
_dpowers                                      strings      0810
_ftoa                                         text5        0D91
_init                                         text19       0AF1
_isdigit                                      text7        0004
_isdigit$465                                  cstackCOMMON 0070
_lcd                                          bssBANK1     00A0
_lcdClear                                     text21       0A4E
_lcdClearRegPin                               text27       09D6
_lcdCommand                                   text22       0A0C
_lcdData                                      text3        0B89
_lcdDataFloat                                 text2        0012
_lcdDataFloat$185                             cstackBANK0  0069
_lcdDataInt                                   text1        0AC1
_lcdDelay                                     text25       098C
_lcdInit                                      text20       0F0C
_lcdInit$120                                  cstackBANK0  0069
_lcdProcess                                   text23       03D0
_lcdPutChar                                   text4        0A72
_lcdSetRegPin                                 text24       09C1
_main                                         maintext     020D
_sprintf                                      text6        059E
btemp                                         (abs)        007E
clear_ram0                                    clrtext      099B
delayMS@us                                    cstackCOMMON 0070
delayUS@us                                    cstackCOMMON 0070
end_of_initialization                         cinit        07FD
ftoa@buf                                      bssBANK1     00AC
ftoa@cp                                       cstackBANK0  0051
ftoa@f                                        cstackBANK0  0044
ftoa@l                                        cstackBANK0  004D
ftoa@rem                                      cstackBANK0  0049
ftoa@status                                   cstackBANK0  0047
intlevel0                                     functab      0000
intlevel1                                     functab      0000
intlevel2                                     functab      0000
intlevel3                                     functab      0000
intlevel4                                     functab      0000
intlevel5                                     functab      0000
isdigit@c                                     cstackCOMMON 0071
lcdClear@lcd                                  cstackBANK0  0049
lcdClearRegPin@lcd                            cstackCOMMON 0070
lcdClearRegPin@pin                            cstackCOMMON 007C
lcdCommand@cmd                                cstackBANK0  0043
lcdCommand@lcd                                cstackBANK0  0037
lcdData@c                                     cstackBANK0  0060
lcdData@lcd                                   cstackBANK0  004A
lcdData@str                                   cstackBANK0  0056
lcdDataFloat@c                                cstackBANK0  006E
lcdDataFloat@di                               cstackBANK0  006B
lcdDataFloat@lcd                              cstackBANK1  00BD
lcdDataFloat@num                              cstackBANK1  00C9
lcdDataFloat@precision                        cstackBANK1  00CC
lcdDataFloat@status                           cstackBANK0  0067
lcdDataFloat@str                              cstackBANK0  006D
lcdDataInt@buf                                cstackBANK1  00C1
lcdDataInt@lcd                                cstackBANK0  0062
lcdDataInt@num                                cstackBANK0  006E
lcdInit@lcd                                   cstackBANK0  0059
lcdProcess@cmd                                cstackBANK0  002E
lcdProcess@isData                             cstackBANK0  0030
lcdProcess@lcd                                cstackBANK0  0022
lcdPutChar@lcd                                cstackBANK0  0037
lcdPutChar@str                                cstackBANK0  0043
lcdSetRegPin@lcd                              cstackCOMMON 0070
lcdSetRegPin@pin                              cstackCOMMON 007C
reset_vec                                     reset_vec    0000
sprintf@ap                                    cstackBANK0  0038
sprintf@c                                     cstackBANK0  0043
sprintf@f                                     cstackBANK0  002A
sprintf@flag                                  cstackBANK0  003D
sprintf@prec                                  cstackBANK0  0041
sprintf@sp                                    cstackBANK0  003E
sprintf@val                                   cstackBANK0  0039
sprintf@width                                 cstackBANK0  003F
stackhi                                       (abs)        0000
stacklo                                       (abs)        0000
start                                         init         0000
start_initialization                          cinit        07F7
wtemp0                                        (abs)        007E


FUNCTION INFORMATION:

 *************** function _main *****************
 Defined at:
		line 55 in file "main.c"
 Parameters:    Size  Location     Type
  argc            2   20[BANK1 ] int 
  argv            2   22[BANK1 ] PTR PTR unsigned char 
 Auto vars:     Size  Location     Type
		None
 Return value:  Size  Location     Type
                  2   20[BANK1 ] int 
 Registers used:
		wreg, fsr0l, fsr0h, status,2, status,0, btemp+1, pclath, cstack
 Tracked objects:
		On entry : 
		On exit  : 
		Unchanged: 
 Data sizes:     COMMON   BANK0   BANK1   BANK2
      Params:         0       0       4       0
      Locals:         0       0       0       0
      Temps:          0       0       4       0
      Totals:         0       0       8       0
Total ram usage:        8 bytes
 Hardware stack levels required when called:    7
 This function calls:
		_delayMS
		_init
		_lcdClear
		_lcdCommand
		_lcdData
		_lcdDataFloat
		_lcdDataInt
 This function is called by:
		Startup code after reset
 This function uses a non-reentrant model


 *************** function _lcdDataInt *****************
 Defined at:
		line 161 in file "../lib/lcd1602.h"
 Parameters:    Size  Location     Type
  lcd            12   66[BANK0 ] struct LCD_1602
  num             2   78[BANK0 ] int 
 Auto vars:     Size  Location     Type
  buf            16    4[BANK1 ] unsigned char [16]
 Return value:  Size  Location     Type
                  1    wreg      void 
 Registers used:
		wreg, fsr0l, fsr0h, status,2, status,0, btemp+1, pclath, cstack
 Tracked objects:
		On entry : 
		On exit  : 
		Unchanged: 
 Data sizes:     COMMON   BANK0   BANK1   BANK2
      Params:         0      14       0       0
      Locals:         0       0      16       0
      Temps:          0       0       4       0
      Totals:         0      14      20       0
Total ram usage:       34 bytes
 Hardware stack levels used:    1
 Hardware stack levels required when called:    5
 This function calls:
		_lcdData
		_sprintf
 This function is called by:
		_main
 This function uses a non-reentrant model


 *************** function _lcdDataFloat *****************
 Defined at:
		line 167 in file "../lib/lcd1602.h"
 Parameters:    Size  Location     Type
  lcd            12    0[BANK1 ] struct LCD_1602
  num             3   12[BANK1 ] float 
  precision       2   15[BANK1 ] int 
 Auto vars:     Size  Location     Type
  c               2   78[BANK0 ] int 
  di              2   75[BANK0 ] int 
  status          2   71[BANK0 ] int 
  str             1   77[BANK0 ] PTR unsigned char 
		 -> ftoa@buf(17), 
 Return value:  Size  Location     Type
                  1    wreg      void 
 Registers used:
		wreg, fsr0l, fsr0h, status,2, status,0, btemp+1, pclath, cstack
 Tracked objects:
		On entry : 
		On exit  : 
		Unchanged: 
 Data sizes:     COMMON   BANK0   BANK1   BANK2
      Params:         0       0      17       0
      Locals:         0       9       0       0
      Temps:          0       5       0       0
      Totals:         0      14      17       0
Total ram usage:       31 bytes
 Hardware stack levels used:    1
 Hardware stack levels required when called:    5
 This function calls:
		_ftoa
		_lcdData
 This function is called by:
		_main
 This function uses a non-reentrant model


 *************** function _lcdData *****************
 Defined at:
		line 153 in file "../lib/lcd1602.h"
 Parameters:    Size  Location     Type
  lcd            12   42[BANK0 ] struct LCD_1602
  str             2   54[BANK0 ] PTR const unsigned char 
		 -> ftoa@buf(17), STR_5(14), STR_4(16), STR_3(3), 
		 -> STR_2(17), lcdDataInt@buf(16), 
 Auto vars:     Size  Location     Type
  c               2   64[BANK0 ] int 
 Return value:  Size  Location     Type
                  1    wreg      void 
 Registers used:
		wreg, fsr0l, fsr0h, status,2, status,0, btemp+1, pclath, cstack
 Tracked objects:
		On entry : 
		On exit  : 
		Unchanged: 
 Data sizes:     COMMON   BANK0   BANK1   BANK2
      Params:         0      14       0       0
      Locals:         0       2       0       0
      Temps:          0       8       0       0
      Totals:         0      24       0       0
Total ram usage:       24 bytes
 Hardware stack levels used:    1
 Hardware stack levels required when called:    4
 This function calls:
		_lcdPutChar
 This function is called by:
		_lcdDataInt
		_lcdDataFloat
		_main
 This function uses a non-reentrant model


 *************** function _lcdPutChar *****************
 Defined at:
		line 187 in file "../lib/lcd1602.h"
 Parameters:    Size  Location     Type
  lcd            12   23[BANK0 ] struct LCD_1602
  str             1   35[BANK0 ] unsigned char 
 Auto vars:     Size  Location     Type
		None
 Return value:  Size  Location     Type
                  1    wreg      void 
 Registers used:
		wreg, fsr0l, fsr0h, status,2, status,0, pclath, cstack
 Tracked objects:
		On entry : 
		On exit  : 
		Unchanged: 
 Data sizes:     COMMON   BANK0   BANK1   BANK2
      Params:         0      13       0       0
      Locals:         0       0       0       0
      Temps:          0       6       0       0
      Totals:         0      19       0       0
Total ram usage:       19 bytes
 Hardware stack levels used:    1
 Hardware stack levels required when called:    3
 This function calls:
		_lcdProcess
 This function is called by:
		_lcdData
 This function uses a non-reentrant model


 *************** function _ftoa *****************
 Defined at:
		line 6 in file "C:\Program Files (x86)\Microchip\xc8\v1.45\sources\common\ftoa.c"
 Parameters:    Size  Location     Type
  f               3   36[BANK0 ] float 
  status          1   39[BANK0 ] PTR int 
		 -> lcdDataFloat@status(2), 
 Auto vars:     Size  Location     Type
  l               4   45[BANK0 ] unsigned long 
  rem             4   41[BANK0 ] unsigned long 
  cp              1   49[BANK0 ] PTR unsigned char 
		 -> ftoa@buf(17), 
 Return value:  Size  Location     Type
                  1    wreg      PTR unsigned char 
 Registers used:
		wreg, fsr0l, fsr0h, status,2, status,0, pclath, cstack
 Tracked objects:
		On entry : 
		On exit  : 
		Unchanged: 
 Data sizes:     COMMON   BANK0   BANK1   BANK2
      Params:         0       4       0       0
      Locals:         0       9       0       0
      Temps:          0       1       0       0
      Totals:         0      14       0       0
Total ram usage:       14 bytes
 Hardware stack levels used:    1
 Hardware stack levels required when called:    3
 This function calls:
		___ftge
		___ftmul
		___ftneg
		___ftsub
		___fttol
		___lltoft
		_sprintf
 This function is called by:
		_lcdDataFloat
 This function uses a non-reentrant model


 *************** function _sprintf *****************
 Defined at:
		line 492 in file "C:\Program Files (x86)\Microchip\xc8\v1.45\sources\common\doprnt.c"
 Parameters:    Size  Location     Type
  sp              1    wreg     PTR unsigned char 
		 -> ftoa@buf(17), lcdDataInt@buf(16), 
  f               1   10[BANK0 ] PTR const unsigned char 
		 -> STR_6(11), STR_1(3), 
 Auto vars:     Size  Location     Type
  sp              1   30[BANK0 ] PTR unsigned char 
		 -> ftoa@buf(17), lcdDataInt@buf(16), 
  val             4   25[BANK0 ] unsigned long 
  tmpval          4    0        struct .
  prec            2   33[BANK0 ] int 
  width           2   31[BANK0 ] int 
  cp              2    0        PTR const unsigned char 
  len             2    0        unsigned int 
  c               1   35[BANK0 ] char 
  flag            1   29[BANK0 ] unsigned char 
  ap              1   24[BANK0 ] PTR void [1]
		 -> ?_sprintf(2), 
 Return value:  Size  Location     Type
                  2   10[BANK0 ] int 
 Registers used:
		wreg, fsr0l, fsr0h, status,2, status,0, pclath, cstack
 Tracked objects:
		On entry : 
		On exit  : 
		Unchanged: 
 Data sizes:     COMMON   BANK0   BANK1   BANK2
      Params:         0       9       0       0
      Locals:         0      12       0       0
      Temps:          0       5       0       0
      Totals:         0      26       0       0
Total ram usage:       26 bytes
 Hardware stack levels used:    1
 Hardware stack levels required when called:    1
 This function calls:
		___lldiv
		___llmod
		___wmul
		_isdigit
 This function is called by:
		_lcdDataInt
		_ftoa
 This function uses a non-reentrant model


 *************** function _isdigit *****************
 Defined at:
		line 8 in file "C:\Program Files (x86)\Microchip\xc8\v1.45\sources\common\isdigit.c"
 Parameters:    Size  Location     Type
  c               1    wreg     unsigned char 
 Auto vars:     Size  Location     Type
  c               1    1[COMMON] unsigned char 
 Return value:  Size  Location     Type
		None               void
 Registers used:
		wreg, status,2, status,0
 Tracked objects:
		On entry : 
		On exit  : 
		Unchanged: 
 Data sizes:     COMMON   BANK0   BANK1   BANK2
      Params:         0       0       0       0
      Locals:         2       0       0       0
      Temps:          0       0       0       0
      Totals:         2       0       0       0
Total ram usage:        2 bytes
 Hardware stack levels used:    1
 This function calls:
		Nothing
 This function is called by:
		_sprintf
 This function uses a non-reentrant model


 *************** function ___wmul *****************
 Defined at:
		line 15 in file "C:\Program Files (x86)\Microchip\xc8\v1.45\sources\common\Umul16.c"
 Parameters:    Size  Location     Type
  multiplier      2    0[COMMON] unsigned int 
  multiplicand    2    2[COMMON] unsigned int 
 Auto vars:     Size  Location     Type
  product         2    4[COMMON] unsigned int 
 Return value:  Size  Location     Type
                  2    0[COMMON] unsigned int 
 Registers used:
		wreg, status,2, status,0
 Tracked objects:
		On entry : 
		On exit  : 
		Unchanged: 
 Data sizes:     COMMON   BANK0   BANK1   BANK2
      Params:         4       0       0       0
      Locals:         2       0       0       0
      Temps:          0       0       0       0
      Totals:         6       0       0       0
Total ram usage:        6 bytes
 Hardware stack levels used:    1
 This function calls:
		Nothing
 This function is called by:
		_sprintf
 This function uses a non-reentrant model


 *************** function ___llmod *****************
 Defined at:
		line 6 in file "C:\Program Files (x86)\Microchip\xc8\v1.45\sources\common\llmod.c"
 Parameters:    Size  Location     Type
  divisor         4    0[BANK0 ] unsigned long 
  dividend        4    4[BANK0 ] unsigned long 
 Auto vars:     Size  Location     Type
  counter         1    9[BANK0 ] unsigned char 
 Return value:  Size  Location     Type
                  4    0[BANK0 ] unsigned long 
 Registers used:
		wreg, status,2, status,0
 Tracked objects:
		On entry : 
		On exit  : 
		Unchanged: 
 Data sizes:     COMMON   BANK0   BANK1   BANK2
      Params:         0       8       0       0
      Locals:         0       1       0       0
      Temps:          0       1       0       0
      Totals:         0      10       0       0
Total ram usage:       10 bytes
 Hardware stack levels used:    1
 This function calls:
		Nothing
 This function is called by:
		_sprintf
 This function uses a non-reentrant model


 *************** function ___lldiv *****************
 Defined at:
		line 6 in file "C:\Program Files (x86)\Microchip\xc8\v1.45\sources\common\lldiv.c"
 Parameters:    Size  Location     Type
  divisor         4    0[COMMON] unsigned long 
  dividend        4    4[COMMON] unsigned long 
 Auto vars:     Size  Location     Type
  quotient        4    9[COMMON] unsigned long 
  counter         1   13[COMMON] unsigned char 
 Return value:  Size  Location     Type
                  4    0[COMMON] unsigned long 
 Registers used:
		wreg, status,2, status,0
 Tracked objects:
		On entry : 
		On exit  : 
		Unchanged: 
 Data sizes:     COMMON   BANK0   BANK1   BANK2
      Params:         8       0       0       0
      Locals:         5       0       0       0
      Temps:          1       0       0       0
      Totals:        14       0       0       0
Total ram usage:       14 bytes
 Hardware stack levels used:    1
 This function calls:
		Nothing
 This function is called by:
		_sprintf
 This function uses a non-reentrant model


 *************** function ___lltoft *****************
 Defined at:
		line 35 in file "C:\Program Files (x86)\Microchip\xc8\v1.45\sources\common\lltoft.c"
 Parameters:    Size  Location     Type
  c               4    8[COMMON] unsigned long 
 Auto vars:     Size  Location     Type
  exp             1   13[COMMON] unsigned char 
 Return value:  Size  Location     Type
                  3    8[COMMON] float 
 Registers used:
		wreg, status,2, status,0, pclath, cstack
 Tracked objects:
		On entry : 
		On exit  : 
		Unchanged: 
 Data sizes:     COMMON   BANK0   BANK1   BANK2
      Params:         4       0       0       0
      Locals:         1       0       0       0
      Temps:          1       0       0       0
      Totals:         6       0       0       0
Total ram usage:        6 bytes
 Hardware stack levels used:    1
 Hardware stack levels required when called:    1
 This function calls:
		___ftpack
 This function is called by:
		_ftoa
 This function uses a non-reentrant model


 *************** function ___fttol *****************
 Defined at:
		line 44 in file "C:\Program Files (x86)\Microchip\xc8\v1.45\sources\common\fttol.c"
 Parameters:    Size  Location     Type
  f1              3   10[BANK0 ] float 
 Auto vars:     Size  Location     Type
  lval            4   19[BANK0 ] unsigned long 
  exp1            1   23[BANK0 ] unsigned char 
  sign1           1   18[BANK0 ] unsigned char 
 Return value:  Size  Location     Type
                  4   10[BANK0 ] long 
 Registers used:
		wreg, status,2, status,0
 Tracked objects:
		On entry : 
		On exit  : 
		Unchanged: 
 Data sizes:     COMMON   BANK0   BANK1   BANK2
      Params:         0       4       0       0
      Locals:         0       6       0       0
      Temps:          0       4       0       0
      Totals:         0      14       0       0
Total ram usage:       14 bytes
 Hardware stack levels used:    1
 This function calls:
		Nothing
 This function is called by:
		_ftoa
 This function uses a non-reentrant model


 *************** function ___ftsub *****************
 Defined at:
		line 18 in file "C:\Program Files (x86)\Microchip\xc8\v1.45\sources\common\ftsub.c"
 Parameters:    Size  Location     Type
  f2              3    7[BANK0 ] float 
  f1              3   10[BANK0 ] float 
 Auto vars:     Size  Location     Type
		None
 Return value:  Size  Location     Type
                  3    7[BANK0 ] float 
 Registers used:
		wreg, status,2, status,0, pclath, cstack
 Tracked objects:
		On entry : 
		On exit  : 
		Unchanged: 
 Data sizes:     COMMON   BANK0   BANK1   BANK2
      Params:         0       6       0       0
      Locals:         0       0       0       0
      Temps:          0       0       0       0
      Totals:         0       6       0       0
Total ram usage:        6 bytes
 Hardware stack levels used:    1
 Hardware stack levels required when called:    2
 This function calls:
		___ftadd
 This function is called by:
		_ftoa
 This function uses a non-reentrant model


 *************** function ___ftadd *****************
 Defined at:
		line 86 in file "C:\Program Files (x86)\Microchip\xc8\v1.45\sources\common\ftadd.c"
 Parameters:    Size  Location     Type
  f1              3    8[COMMON] float 
  f2              3   11[COMMON] float 
 Auto vars:     Size  Location     Type
  exp1            1    6[BANK0 ] unsigned char 
  exp2            1    5[BANK0 ] unsigned char 
  sign            1    4[BANK0 ] unsigned char 
 Return value:  Size  Location     Type
                  3    8[COMMON] float 
 Registers used:
		wreg, status,2, status,0, pclath, cstack
 Tracked objects:
		On entry : 
		On exit  : 
		Unchanged: 
 Data sizes:     COMMON   BANK0   BANK1   BANK2
      Params:         6       0       0       0
      Locals:         0       3       0       0
      Temps:          0       4       0       0
      Totals:         6       7       0       0
Total ram usage:       13 bytes
 Hardware stack levels used:    1
 Hardware stack levels required when called:    1
 This function calls:
		___ftpack
 This function is called by:
		___ftsub
 This function uses a non-reentrant model


 *************** function ___ftneg *****************
 Defined at:
		line 15 in file "C:\Program Files (x86)\Microchip\xc8\v1.45\sources\common\ftneg.c"
 Parameters:    Size  Location     Type
  f1              3    0[COMMON] float 
 Auto vars:     Size  Location     Type
		None
 Return value:  Size  Location     Type
                  3    0[COMMON] float 
 Registers used:
		wreg
 Tracked objects:
		On entry : 
		On exit  : 
		Unchanged: 
 Data sizes:     COMMON   BANK0   BANK1   BANK2
      Params:         3       0       0       0
      Locals:         0       0       0       0
      Temps:          0       0       0       0
      Totals:         3       0       0       0
Total ram usage:        3 bytes
 Hardware stack levels used:    1
 This function calls:
		Nothing
 This function is called by:
		_ftoa
 This function uses a non-reentrant model


 *************** function ___ftmul *****************
 Defined at:
		line 62 in file "C:\Program Files (x86)\Microchip\xc8\v1.45\sources\common\ftmul.c"
 Parameters:    Size  Location     Type
  f1              3    8[COMMON] float 
  f2              3   11[COMMON] float 
 Auto vars:     Size  Location     Type
  f3_as_produc    3    5[BANK0 ] unsigned um
  sign            1    9[BANK0 ] unsigned char 
  cntr            1    8[BANK0 ] unsigned char 
  exp             1    4[BANK0 ] unsigned char 
 Return value:  Size  Location     Type
                  3    8[COMMON] float 
 Registers used:
		wreg, status,2, status,0, pclath, cstack
 Tracked objects:
		On entry : 
		On exit  : 
		Unchanged: 
 Data sizes:     COMMON   BANK0   BANK1   BANK2
      Params:         6       0       0       0
      Locals:         0       6       0       0
      Temps:          0       4       0       0
      Totals:         6      10       0       0
Total ram usage:       16 bytes
 Hardware stack levels used:    1
 Hardware stack levels required when called:    1
 This function calls:
		___ftpack
 This function is called by:
		_ftoa
 This function uses a non-reentrant model


 *************** function ___ftpack *****************
 Defined at:
		line 62 in file "C:\Program Files (x86)\Microchip\xc8\v1.45\sources\common\float.c"
 Parameters:    Size  Location     Type
  arg             3    0[COMMON] unsigned um
  exp             1    3[COMMON] unsigned char 
  sign            1    4[COMMON] unsigned char 
 Auto vars:     Size  Location     Type
		None
 Return value:  Size  Location     Type
                  3    0[COMMON] float 
 Registers used:
		wreg, status,2, status,0
 Tracked objects:
		On entry : 
		On exit  : 
		Unchanged: 
 Data sizes:     COMMON   BANK0   BANK1   BANK2
      Params:         5       0       0       0
      Locals:         0       0       0       0
      Temps:          3       0       0       0
      Totals:         8       0       0       0
Total ram usage:        8 bytes
 Hardware stack levels used:    1
 This function calls:
		Nothing
 This function is called by:
		___ftadd
		___ftmul
		___lltoft
 This function uses a non-reentrant model


 *************** function ___ftge *****************
 Defined at:
		line 4 in file "C:\Program Files (x86)\Microchip\xc8\v1.45\sources\common\ftge.c"
 Parameters:    Size  Location     Type
  ff1             3    0[COMMON] float 
  ff2             3    3[COMMON] float 
 Auto vars:     Size  Location     Type
		None
 Return value:  Size  Location     Type
		None               void
 Registers used:
		wreg, status,2, status,0
 Tracked objects:
		On entry : 
		On exit  : 
		Unchanged: 
 Data sizes:     COMMON   BANK0   BANK1   BANK2
      Params:         6       0       0       0
      Locals:         0       0       0       0
      Temps:          6       0       0       0
      Totals:        12       0       0       0
Total ram usage:       12 bytes
 Hardware stack levels used:    1
 This function calls:
		Nothing
 This function is called by:
		_ftoa
 This function uses a non-reentrant model


 *************** function _init *****************
 Defined at:
		line 27 in file "main.c"
 Parameters:    Size  Location     Type
		None
 Auto vars:     Size  Location     Type
		None
 Return value:  Size  Location     Type
                  1    wreg      void 
 Registers used:
		wreg, fsr0l, fsr0h, status,2, status,0, pclath, cstack
 Tracked objects:
		On entry : 
		On exit  : 
		Unchanged: 
 Data sizes:     COMMON   BANK0   BANK1   BANK2
      Params:         0       0       0       0
      Locals:         0       0       0       0
      Temps:          0       4       0       0
      Totals:         0       4       0       0
Total ram usage:        4 bytes
 Hardware stack levels used:    1
 Hardware stack levels required when called:    6
 This function calls:
		_lcdInit
 This function is called by:
		_main
 This function uses a non-reentrant model


 *************** function _lcdInit *****************
 Defined at:
		line 77 in file "../lib/lcd1602.h"
 Parameters:    Size  Location     Type
  lcd            12   57[BANK0 ] struct LCD_1602
 Auto vars:     Size  Location     Type
		None
 Return value:  Size  Location     Type
                  1    wreg      void 
 Registers used:
		wreg, fsr0l, fsr0h, status,2, status,0, pclath, cstack
 Tracked objects:
		On entry : 
		On exit  : 
		Unchanged: 
 Data sizes:     COMMON   BANK0   BANK1   BANK2
      Params:         0      12       0       0
      Locals:         0       2       0       0
      Temps:          0       4       0       0
      Totals:         0      18       0       0
Total ram usage:       18 bytes
 Hardware stack levels used:    1
 Hardware stack levels required when called:    5
 This function calls:
		_lcdClear
		_lcdCommand
 This function is called by:
		_init
 This function uses a non-reentrant model


 *************** function _lcdClear *****************
 Defined at:
		line 93 in file "../lib/lcd1602.h"
 Parameters:    Size  Location     Type
  lcd            12   41[BANK0 ] struct LCD_1602
 Auto vars:     Size  Location     Type
		None
 Return value:  Size  Location     Type
                  1    wreg      void 
 Registers used:
		wreg, fsr0l, fsr0h, status,2, status,0, pclath, cstack
 Tracked objects:
		On entry : 
		On exit  : 
		Unchanged: 
 Data sizes:     COMMON   BANK0   BANK1   BANK2
      Params:         0      12       0       0
      Locals:         0       0       0       0
      Temps:          0       4       0       0
      Totals:         0      16       0       0
Total ram usage:       16 bytes
 Hardware stack levels used:    1
 Hardware stack levels required when called:    4
 This function calls:
		_lcdCommand
 This function is called by:
		_lcdInit
		_main
 This function uses a non-reentrant model


 *************** function _lcdCommand *****************
 Defined at:
		line 149 in file "../lib/lcd1602.h"
 Parameters:    Size  Location     Type
  lcd            12   23[BANK0 ] struct LCD_1602
  cmd             2   35[BANK0 ] unsigned int 
 Auto vars:     Size  Location     Type
		None
 Return value:  Size  Location     Type
                  1    wreg      void 
 Registers used:
		wreg, fsr0l, fsr0h, status,2, status,0, pclath, cstack
 Tracked objects:
		On entry : 
		On exit  : 
		Unchanged: 
 Data sizes:     COMMON   BANK0   BANK1   BANK2
      Params:         0      14       0       0
      Locals:         0       0       0       0
      Temps:          0       4       0       0
      Totals:         0      18       0       0
Total ram usage:       18 bytes
 Hardware stack levels used:    1
 Hardware stack levels required when called:    3
 This function calls:
		_lcdProcess
 This function is called by:
		_lcdInit
		_lcdClear
		_main
 This function uses a non-reentrant model


 *************** function _lcdProcess *****************
 Defined at:
		line 97 in file "../lib/lcd1602.h"
 Parameters:    Size  Location     Type
  lcd            12    2[BANK0 ] struct LCD_1602
  cmd             2   14[BANK0 ] unsigned int 
  isData          2   16[BANK0 ] unsigned int 
 Auto vars:     Size  Location     Type
		None
 Return value:  Size  Location     Type
                  1    wreg      void 
 Registers used:
		wreg, fsr0l, fsr0h, status,2, status,0, pclath, cstack
 Tracked objects:
		On entry : 
		On exit  : 
		Unchanged: 
 Data sizes:     COMMON   BANK0   BANK1   BANK2
      Params:         0      16       0       0
      Locals:         0       0       0       0
      Temps:          0       5       0       0
      Totals:         0      21       0       0
Total ram usage:       21 bytes
 Hardware stack levels used:    1
 Hardware stack levels required when called:    2
 This function calls:
		_lcdClearRegPin
		_lcdDelay
		_lcdSetRegPin
 This function is called by:
		_lcdCommand
		_lcdPutChar
 This function uses a non-reentrant model


 *************** function _lcdSetRegPin *****************
 Defined at:
		line 195 in file "../lib/lcd1602.h"
 Parameters:    Size  Location     Type
  lcd            12    0[COMMON] struct LCD_1602
  pin             1   12[COMMON] unsigned char 
 Auto vars:     Size  Location     Type
		None
 Return value:  Size  Location     Type
                  1    wreg      void 
 Registers used:
		wreg, fsr0l, fsr0h, status,2, status,0
 Tracked objects:
		On entry : 
		On exit  : 
		Unchanged: 
 Data sizes:     COMMON   BANK0   BANK1   BANK2
      Params:        13       0       0       0
      Locals:         0       0       0       0
      Temps:          0       2       0       0
      Totals:        13       2       0       0
Total ram usage:       15 bytes
 Hardware stack levels used:    1
 This function calls:
		Nothing
 This function is called by:
		_lcdProcess
 This function uses a non-reentrant model


 *************** function _lcdDelay *****************
 Defined at:
		line 191 in file "../lib/lcd1602.h"
 Parameters:    Size  Location     Type
		None
 Auto vars:     Size  Location     Type
		None
 Return value:  Size  Location     Type
                  1    wreg      void 
 Registers used:
		wreg, status,2, status,0, pclath, cstack
 Tracked objects:
		On entry : 
		On exit  : 
		Unchanged: 
 Data sizes:     COMMON   BANK0   BANK1   BANK2
      Params:         0       0       0       0
      Locals:         0       0       0       0
      Temps:          0       0       0       0
      Totals:         0       0       0       0
Total ram usage:        0 bytes
 Hardware stack levels used:    1
 Hardware stack levels required when called:    1
 This function calls:
		_delayUS
 This function is called by:
		_lcdProcess
 This function uses a non-reentrant model


 *************** function _delayUS *****************
 Defined at:
		line 14 in file "../lib/delay.h"
 Parameters:    Size  Location     Type
  us              2    0[COMMON] unsigned int 
 Auto vars:     Size  Location     Type
		None
 Return value:  Size  Location     Type
                  1    wreg      void 
 Registers used:
		wreg, status,2, status,0
 Tracked objects:
		On entry : 
		On exit  : 
		Unchanged: 
 Data sizes:     COMMON   BANK0   BANK1   BANK2
      Params:         2       0       0       0
      Locals:         0       0       0       0
      Temps:          0       0       0       0
      Totals:         2       0       0       0
Total ram usage:        2 bytes
 Hardware stack levels used:    1
 This function calls:
		Nothing
 This function is called by:
		_lcdDelay
 This function uses a non-reentrant model


 *************** function _lcdClearRegPin *****************
 Defined at:
		line 199 in file "../lib/lcd1602.h"
 Parameters:    Size  Location     Type
  lcd            12    0[COMMON] struct LCD_1602
  pin             1   12[COMMON] unsigned char 
 Auto vars:     Size  Location     Type
		None
 Return value:  Size  Location     Type
                  1    wreg      void 
 Registers used:
		wreg, fsr0l, fsr0h, status,2, status,0
 Tracked objects:
		On entry : 
		On exit  : 
		Unchanged: 
 Data sizes:     COMMON   BANK0   BANK1   BANK2
      Params:        13       0       0       0
      Locals:         0       0       0       0
      Temps:          0       2       0       0
      Totals:        13       2       0       0
Total ram usage:       15 bytes
 Hardware stack levels used:    1
 This function calls:
		Nothing
 This function is called by:
		_lcdProcess
 This function uses a non-reentrant model


 *************** function _delayMS *****************
 Defined at:
		line 21 in file "../lib/delay.h"
 Parameters:    Size  Location     Type
  us              2    0[COMMON] unsigned int 
 Auto vars:     Size  Location     Type
		None
 Return value:  Size  Location     Type
                  1    wreg      void 
 Registers used:
		wreg, status,2, status,0
 Tracked objects:
		On entry : 
		On exit  : 
		Unchanged: 
 Data sizes:     COMMON   BANK0   BANK1   BANK2
      Params:         2       0       0       0
      Locals:         0       0       0       0
      Temps:          1       0       0       0
      Totals:         3       0       0       0
Total ram usage:        3 bytes
 Hardware stack levels used:    1
 This function calls:
		Nothing
 This function is called by:
		_main
 This function uses a non-reentrant model



MODULE INFORMATION

Module		Function		Class		Link	Load	Size
C:\Program Files (x86)\Microchip\xc8\v1.45\sources\common\ftneg.c
		___ftneg       		CODE           	0993	0000	9

C:\Program Files (x86)\Microchip\xc8\v1.45\sources\common\ftneg.c estimated size: 9

C:\Program Files (x86)\Microchip\xc8\v1.45\sources\common\ftsub.c
		___ftsub       		CODE           	09EC	0000	33

C:\Program Files (x86)\Microchip\xc8\v1.45\sources\common\ftsub.c estimated size: 33

C:\Program Files (x86)\Microchip\xc8\v1.45\sources\common\float.c
		___ftpack      		CODE           	0C97	0000	109

C:\Program Files (x86)\Microchip\xc8\v1.45\sources\common\float.c estimated size: 109

C:\Program Files (x86)\Microchip\xc8\v1.45\sources\common\doprnt.c
		_sprintf       		CODE           	059E	0000	602

C:\Program Files (x86)\Microchip\xc8\v1.45\sources\common\doprnt.c estimated size: 602

C:\Program Files (x86)\Microchip\xc8\v1.45\sources\common\ftoa.c
		_ftoa          		CODE           	0D91	0000	172

C:\Program Files (x86)\Microchip\xc8\v1.45\sources\common\ftoa.c estimated size: 172

C:\Program Files (x86)\Microchip\xc8\v1.45\sources\common\lltoft.c
		___lltoft      		CODE           	0A97	0000	43

C:\Program Files (x86)\Microchip\xc8\v1.45\sources\common\lltoft.c estimated size: 43

C:\Program Files (x86)\Microchip\xc8\v1.45\sources\common\Umul16.c
		___wmul        		CODE           	0A2D	0000	34

C:\Program Files (x86)\Microchip\xc8\v1.45\sources\common\Umul16.c estimated size: 34

C:\Program Files (x86)\Microchip\xc8\v1.45\sources\common\ftge.c
		___ftge        		CODE           	0BDC	0000	94

C:\Program Files (x86)\Microchip\xc8\v1.45\sources\common\ftge.c estimated size: 94

C:\Program Files (x86)\Microchip\xc8\v1.45\sources\common\isdigit.c
		_isdigit       		CODE           	0004	0000	15

C:\Program Files (x86)\Microchip\xc8\v1.45\sources\common\isdigit.c estimated size: 15

C:\Program Files (x86)\Microchip\xc8\v1.45\sources\common\ftmul.c
		___ftmul       		CODE           	0E3C	0000	209

C:\Program Files (x86)\Microchip\xc8\v1.45\sources\common\ftmul.c estimated size: 209

C:\Program Files (x86)\Microchip\xc8\v1.45\sources\common\llmod.c
		___llmod       		CODE           	0B3B	0000	79

C:\Program Files (x86)\Microchip\xc8\v1.45\sources\common\llmod.c estimated size: 79

shared
		_LCD_CMD_USE_4_BIT_2_LINE_5x7_MTX		STRING         	0850	0000	3
		_LCD_CMD_USE_8_BIT_2_LINE_5x7_MTX		STRING         	084E	0000	3
		_LCD_CMD_CUSTOM_CHAR_DEF_CGRAM_ADDR_1		STRING         	0000	0000	0
		__stringtab    		STRING         	0800	0000	17
		_LCD_CMD_CUSTOM_CHAR_DEF_CGRAM_ADDR_2		STRING         	0000	0000	0
		_LCD_CMD_INCREMENT_CURSOR		STRING         	085A	0000	3
		_LCD_CMD_CUSTOM_CHAR_DEF_CGRAM_ADDR_3		STRING         	0000	0000	0
		_dpowers       		STRING         	0810	0000	41
		_LCD_CMD_CLEAR 		STRING         	085C	0000	3
		_LCD_CMD_CUSTOM_CHAR_DEF_CGRAM_ADDR_4		STRING         	0000	0000	0
		_LCD_CMD_SECOND_LINE_FIRST_POS		STRING         	0848	0000	3
		_LCD_CMD_FIRST_LINE_FIRST_POS		STRING         	084C	0000	3
		_LCD_CMD_CUSTOM_CHAR_DEF_CGRAM_ADDR_5		STRING         	0000	0000	0
		_LCD_CMD_JUMP_TO_SECOND_LINE		STRING         	0000	0000	0
		_LCD_CMD_CUSTOM_CHAR_DEF_CGRAM_ADDR_6		STRING         	0000	0000	0
		__initialization		CODE           	07F7	0000	7
		_LCD_CMD_DISPLAY_CURSOR_ON		STRING         	0000	0000	0
		_LCD_CMD_DISPLAY_ON_CURSOR_OFF		STRING         	0858	0000	3
		_LCD_CMD_LCD_DISPLAY_CURSOR_ON		STRING         	0000	0000	0
		_LCD_CMD_CUSTOM_CHAR_DEF_CGRAM_ADDR_7		STRING         	0000	0000	0
		_LCD_CMD_CUSTOM_CHAR_DEF_CGRAM_ADDR_0		STRING         	0000	0000	0
		_LCD_CMD_USE_4_BIT_1_LINE_5x7_MTX		STRING         	0000	0000	0

shared estimated size: 86

C:\Program Files (x86)\Microchip\xc8\v1.45\sources\common\fttol.c
		___fttol       		CODE           	0D03	0000	143

C:\Program Files (x86)\Microchip\xc8\v1.45\sources\common\fttol.c estimated size: 143

../lib/lcd1602.h
		_lcdCommand    		CODE           	0A0C	0000	34
		_lcdProcess    		CODE           	03D0	0000	463
		_lcdClear      		CODE           	0A4E	0000	37
		_lcdSetRegPin  		CODE           	09C1	0000	22
		_lcdPutChar    		CODE           	0A72	0000	38
		_lcdClearRegPin		CODE           	09D6	0000	23
		_lcdDelay      		CODE           	098C	0000	8
		_lcdInit       		CODE           	0F0C	0000	245
		_lcdData       		CODE           	0B89	0000	84
		_lcdDataInt    		CODE           	0AC1	0000	49
		_lcdDataFloat  		CODE           	0012	0000	246

../lib/lcd1602.h estimated size: 1249

C:\Program Files (x86)\Microchip\xc8\v1.45\sources\common\ftadd.c
		___ftadd       		CODE           	0107	0000	263

C:\Program Files (x86)\Microchip\xc8\v1.45\sources\common\ftadd.c estimated size: 263

C:\Program Files (x86)\Microchip\xc8\v1.45\sources\common\lldiv.c
		___lldiv       		CODE           	0C39	0000	95

C:\Program Files (x86)\Microchip\xc8\v1.45\sources\common\lldiv.c estimated size: 95

../lib/delay.h
		_delayUS       		CODE           	09A3	0000	13
		_delayMS       		CODE           	09AF	0000	19

../lib/delay.h estimated size: 32

main.c
		_init          		CODE           	0AF1	0000	75
		_main          		CODE           	020D	0000	452

main.c estimated size: 527

